; Function Attrs: mustprogress nofree norecurse nosync nounwind willreturn memory(argmem: readwrite) uwtable
define void @_ZN7rocksdb26CompactOnDeletionCollector6FinishEPSt3mapINSt7__cxx1112basic_stringIcSt11char_traitsIcESaIcEEES7_St4lessIS7_ESaISt4pairIKS7_S7_EEE(ptr dead_on_unwind noalias writable writeonly sret(%"class.rocksdb::Status") align 8 captures(none) initializes((0, 6), (8, 16)) %0, ptr noundef nonnull align 8 captures(none) dereferenceable(1106) initializes((1105, 1106)) %1, ptr readnone captures(none) %2) unnamed_addr #2 align 2 personality ptr @__gxx_personality_v0 {
  %4 = getelementptr inbounds nuw i8, ptr %1, i64 1104
  %5 = load i8, ptr %4, align 8, !tbaa !19, !range !17, !noundef !18
  %6 = trunc nuw i8 %5 to i1
  br i1 %6, label %24, label %7

7:                                                ; preds = %3
  %8 = getelementptr inbounds nuw i8, ptr %1, i64 1080
  %9 = load i8, ptr %8, align 8, !tbaa !16, !range !17, !noundef !18
  %10 = trunc nuw i8 %9 to i1
  br i1 %10, label %11, label %24

11:                                               ; preds = %7
  %12 = getelementptr inbounds nuw i8, ptr %1, i64 1088
  %13 = load i64, ptr %12, align 8, !tbaa !20
  %.not = icmp eq i64 %13, 0
  br i1 %.not, label %24, label %14

14:                                               ; preds = %11
  %15 = getelementptr inbounds nuw i8, ptr %1, i64 1096
  %16 = load i64, ptr %15, align 8, !tbaa !21
  %17 = uitofp i64 %16 to double
  %18 = uitofp i64 %13 to double
  %19 = fdiv double %17, %18
  %20 = getelementptr inbounds nuw i8, ptr %1, i64 1072
  %21 = load double, ptr %20, align 8, !tbaa !15
  %22 = fcmp oge double %19, %21
  %23 = zext i1 %22 to i8
  store i8 %23, ptr %4, align 8, !tbaa !19
  br label %24

24:                                               ; preds = %14, %11, %7, %3
  %25 = getelementptr inbounds nuw i8, ptr %1, i64 1105
  store i8 1, ptr %25, align 1, !tbaa !30
  %26 = getelementptr inbounds nuw i8, ptr %0, i64 8
  store ptr null, ptr %26, align 8, !tbaa !26, !alias.scope !31
  tail call void @llvm.memset.p0.i64(ptr noundef nonnull align 8 dereferenceable(16) %0, i8 0, i64 6, i1 false), !alias.scope !31
  ret void
}